target datalayout = "e-m:e-p270:32:32-p271:32:32-p272:64:64-i64:64-i128:128-f80:128-n8:16:32:64-S128"
target triple = "x86_64-pc-linux-gnu"

%struct.rb_ractor_struct = type { %struct.rb_ractor_pub, %struct.rb_ractor_sync, i64, %union.pthread_cond_t, %struct.anon.17, i64, i64, i64, i32, %struct.ccan_list_node, ptr, ptr, i64, i64, i64, i64, i64, i64, ptr }
%struct.rb_ractor_pub = type { i64, i32, %struct.rb_hook_list_struct }
%struct.rb_hook_list_struct = type { ptr, i32, i32, i8, i8 }
%struct.rb_ractor_sync = type { %union.pthread_mutex_t, i8, i8, %struct.rb_ractor_queue, %struct.rb_ractor_queue, %struct.rb_ractor_basket, %struct.ractor_wait }
%union.pthread_mutex_t = type { %struct.__pthread_mutex_s }
%struct.__pthread_mutex_s = type { i32, i32, i32, i32, i32, i16, i16, %struct.__pthread_internal_list }
%struct.__pthread_internal_list = type { ptr, ptr }
%struct.rb_ractor_queue = type { ptr, i32, i32, i32, i32, i32 }
%struct.rb_ractor_basket = type { %union.anon.13, i64, %union.anon.14 }
%union.anon.13 = type { i32 }
%union.anon.14 = type { %struct.anon.15 }
%struct.anon.15 = type { i64, i8 }
%struct.ractor_wait = type { i32, i32, ptr }
%union.pthread_cond_t = type { %struct.__pthread_cond_s }
%struct.__pthread_cond_s = type { %union.__atomic_wide_counter, %union.__atomic_wide_counter, [2 x i32], [2 x i32], i32, i32, [2 x i32] }
%union.__atomic_wide_counter = type { i64 }
%struct.anon.17 = type { %struct.ccan_list_head, i32, i32, i32, %struct.rb_thread_sched, ptr, ptr }
%struct.ccan_list_head = type { %struct.ccan_list_node }
%struct.rb_thread_sched = type { %union.pthread_mutex_t, ptr, i8, i8, i8, %struct.ccan_list_head, i32, %struct.ccan_list_node }
%struct.ccan_list_node = type { ptr, ptr }
%struct.rb_vm_struct = type { i64, %struct.anon, ptr, i64, %struct.ccan_list_head, i32, i8, i64, ptr, [5 x i64], i64, i64, i64, i64, i64, i64, i64, i64, i64, ptr, ptr, ptr, %struct.anon.3, ptr, i32, %struct.ccan_list_head, %union.pthread_mutex_t, i64, i64, i64, i64, i32, %struct.anon.4, ptr, ptr, ptr, ptr, ptr, ptr, ptr, ptr, i64, [1023 x ptr], %struct.anon.5 }
%struct.anon = type { %struct.ccan_list_head, i32, i32, ptr, ptr, %struct.anon.0, %struct.anon.2 }
%struct.anon.0 = type { %union.pthread_mutex_t, ptr, i32, %union.pthread_cond_t, i8 }
%struct.anon.2 = type { %union.pthread_mutex_t, ptr, i8, %union.pthread_cond_t, i32, i32, i32, i32, %struct.ccan_list_head, i32, %struct.ccan_list_head, %struct.ccan_list_head, %struct.ccan_list_head, i8, %union.pthread_cond_t, %union.pthread_cond_t, i8, i32, i32 }
%struct.anon.3 = type { [65 x i64] }
%struct.anon.4 = type { ptr, ptr }
%struct.anon.5 = type { i64, i64, i64, i64 }
%struct.RData = type { %struct.RBasic, ptr, ptr, ptr }
%struct.RBasic = type { i64, i64 }
%struct.cross_ractor_require = type { i64, i64, i64, i64, i64, i64 }

@.str = private unnamed_addr constant [12 x i8] c"../ractor.c\00", align 1
@rb_cRactor = dso_local global i64 0, align 8
@ruby_current_ec = external thread_local global ptr, align 8
@ruby_current_vm_ptr = external global ptr, align 8
@.str.100 = private unnamed_addr constant [15 x i8] c"Ractor/channel\00", align 1

; Function Attrs: nounwind sspstrong uwtable
define internal zeroext i1 @ractor_sleeping_by(ptr noundef %0, i32 noundef %1) #0 {
  %3 = alloca ptr, align 8
  %4 = alloca i32, align 4
  store ptr %0, ptr %3, align 8, !tbaa !7
  store i32 %1, ptr %4, align 4, !tbaa !14
  %5 = load ptr, ptr %3, align 8, !tbaa !7
  %6 = getelementptr inbounds nuw %struct.rb_ractor_struct, ptr %5, i32 0, i32 1
  %7 = getelementptr inbounds nuw %struct.rb_ractor_sync, ptr %6, i32 0, i32 6
  %8 = getelementptr inbounds nuw %struct.ractor_wait, ptr %7, i32 0, i32 0
  %9 = load i32, ptr %8, align 8, !tbaa !284
  %10 = load i32, ptr %4, align 4, !tbaa !14
  %11 = and i32 %9, %10
  %12 = icmp ne i32 %11, 0
  br i1 %12, label %13, label %20

13:                                               ; preds = %2
  %14 = load ptr, ptr %3, align 8, !tbaa !7
  %15 = getelementptr inbounds nuw %struct.rb_ractor_struct, ptr %14, i32 0, i32 1
  %16 = getelementptr inbounds nuw %struct.rb_ractor_sync, ptr %15, i32 0, i32 6
  %17 = getelementptr inbounds nuw %struct.ractor_wait, ptr %16, i32 0, i32 1
  %18 = load i32, ptr %17, align 4, !tbaa !235
  %19 = icmp eq i32 %18, 0
  br label %20

20:                                               ; preds = %13, %2
  %21 = phi i1 [ false, %2 ], [ %19, %13 ]
  ret i1 %21
}

; Function Attrs: nounwind sspstrong uwtable
define internal void @ASSERT_ractor_locking(ptr noundef %0) #0 {
  %2 = alloca ptr, align 8
  store ptr %0, ptr %2, align 8, !tbaa !7
  ret void
}

; Function Attrs: nounwind sspstrong uwtable
define internal void @ASSERT_ractor_unlocking(ptr noundef %0) #0 {
  %2 = alloca ptr, align 8
  store ptr %0, ptr %2, align 8, !tbaa !7
  ret void
}

; Function Attrs: nounwind sspstrong uwtable
define internal void @ractor_unlock(ptr noundef %0, ptr noundef %1, i32 noundef %2) #0 {
  %4 = alloca ptr, align 8
  %5 = alloca ptr, align 8
  %6 = alloca i32, align 4
  store ptr %0, ptr %4, align 8, !tbaa !7
  store ptr %1, ptr %5, align 8, !tbaa !12
  store i32 %2, ptr %6, align 4, !tbaa !14
  %7 = load ptr, ptr %4, align 8, !tbaa !7
  call void @ASSERT_ractor_locking(ptr noundef %7)
  %8 = load ptr, ptr %4, align 8, !tbaa !7
  %9 = getelementptr inbounds nuw %struct.rb_ractor_struct, ptr %8, i32 0, i32 1
  %10 = getelementptr inbounds nuw %struct.rb_ractor_sync, ptr %9, i32 0, i32 0
  call void @rb_native_mutex_unlock(ptr noundef %10)
  ret void
}

; Function Attrs: nounwind sspstrong uwtable
define internal zeroext i1 @ractor_wakeup(ptr noundef %0, i32 noundef %1, i32 noundef %2) #0 {
  %4 = alloca i1, align 1
  %5 = alloca ptr, align 8
  %6 = alloca i32, align 4
  %7 = alloca i32, align 4
  store ptr %0, ptr %5, align 8, !tbaa !7
  store i32 %1, ptr %6, align 4, !tbaa !14
  store i32 %2, ptr %7, align 4, !tbaa !14
  %8 = load ptr, ptr %5, align 8, !tbaa !7
  call void @ASSERT_ractor_locking(ptr noundef %8)
  %9 = load ptr, ptr %5, align 8, !tbaa !7
  %10 = load i32, ptr %6, align 4, !tbaa !14
  %11 = call zeroext i1 @ractor_sleeping_by(ptr noundef %9, i32 noundef %10)
  br i1 %11, label %12, label %19

12:                                               ; preds = %3
  %13 = load i32, ptr %7, align 4, !tbaa !14
  %14 = load ptr, ptr %5, align 8, !tbaa !7
  %15 = getelementptr inbounds nuw %struct.rb_ractor_struct, ptr %14, i32 0, i32 1
  %16 = getelementptr inbounds nuw %struct.rb_ractor_sync, ptr %15, i32 0, i32 6
  %17 = getelementptr inbounds nuw %struct.ractor_wait, ptr %16, i32 0, i32 1
  store i32 %13, ptr %17, align 4, !tbaa !235
  %18 = load ptr, ptr %5, align 8, !tbaa !7
  call void @rb_ractor_sched_wakeup(ptr noundef %18)
  store i1 true, ptr %4, align 1
  br label %20

19:                                               ; preds = %3
  store i1 false, ptr %4, align 1
  br label %20

20:                                               ; preds = %19, %12
  %21 = load i1, ptr %4, align 1
  ret i1 %21
}

; Function Attrs: nounwind sspstrong uwtable
define internal void @ractor_lock(ptr noundef %0, ptr noundef %1, i32 noundef %2) #0 {
  %4 = alloca ptr, align 8
  %5 = alloca ptr, align 8
  %6 = alloca i32, align 4
  store ptr %0, ptr %4, align 8, !tbaa !7
  store ptr %1, ptr %5, align 8, !tbaa !12
  store i32 %2, ptr %6, align 4, !tbaa !14
  %7 = load ptr, ptr %4, align 8, !tbaa !7
  call void @ASSERT_ractor_unlocking(ptr noundef %7)
  %8 = load ptr, ptr %4, align 8, !tbaa !7
  %9 = getelementptr inbounds nuw %struct.rb_ractor_struct, ptr %8, i32 0, i32 1
  %10 = getelementptr inbounds nuw %struct.rb_ractor_sync, ptr %9, i32 0, i32 0
  call void @rb_native_mutex_lock(ptr noundef %10)
  ret void
}

; Function Attrs: inlinehint nounwind sspstrong uwtable
define internal i64 @rbimpl_strlen(ptr noundef nonnull %0) #4 {
  %2 = alloca ptr, align 8
  store ptr %0, ptr %2, align 8, !tbaa !12
  %3 = load ptr, ptr %2, align 8, !tbaa !12
  %4 = call i64 @strlen(ptr noundef %3) #32
  ret i64 %4
}

; Function Attrs: nounwind sspstrong uwtable
define internal i64 @ractor_close_incoming(ptr noundef %0, ptr noundef %1) #0 {
  %3 = alloca ptr, align 8
  %4 = alloca ptr, align 8
  %5 = alloca i64, align 8
  store ptr %0, ptr %3, align 8, !tbaa !88
  store ptr %1, ptr %4, align 8, !tbaa !7
  call void @llvm.lifetime.start.p0(i64 8, ptr %5) #16
  %6 = load ptr, ptr %4, align 8, !tbaa !7
  call void @ractor_lock(ptr noundef %6, ptr noundef @.str, i32 noundef 1871)
  %7 = load ptr, ptr %4, align 8, !tbaa !7
  %8 = getelementptr inbounds nuw %struct.rb_ractor_struct, ptr %7, i32 0, i32 1
  %9 = getelementptr inbounds nuw %struct.rb_ractor_sync, ptr %8, i32 0, i32 1
  %10 = load i8, ptr %9, align 8, !tbaa !102, !range !91, !noundef !92
  %11 = trunc i8 %10 to i1
  br i1 %11, label %20, label %12

12:                                               ; preds = %2
  store i64 0, ptr %5, align 8, !tbaa !16
  %13 = load ptr, ptr %4, align 8, !tbaa !7
  %14 = getelementptr inbounds nuw %struct.rb_ractor_struct, ptr %13, i32 0, i32 1
  %15 = getelementptr inbounds nuw %struct.rb_ractor_sync, ptr %14, i32 0, i32 1
  store i8 1, ptr %15, align 8, !tbaa !102
  %16 = load ptr, ptr %4, align 8, !tbaa !7
  %17 = call zeroext i1 @ractor_wakeup(ptr noundef %16, i32 noundef 1, i32 noundef 4)
  br i1 %17, label %18, label %19

18:                                               ; preds = %12
  br label %19

19:                                               ; preds = %18, %12
  br label %21

20:                                               ; preds = %2
  store i64 20, ptr %5, align 8, !tbaa !16
  br label %21

21:                                               ; preds = %20, %19
  %22 = load ptr, ptr %4, align 8, !tbaa !7
  call void @ractor_unlock(ptr noundef %22, ptr noundef @.str, i32 noundef 1885)
  %23 = load i64, ptr %5, align 8, !tbaa !16
  call void @llvm.lifetime.end.p0(i64 8, ptr %5) #16
  ret i64 %23
}

; Function Attrs: inlinehint nounwind sspstrong uwtable
define internal ptr @RACTOR_PTR(i64 noundef %0) #4 {
  %2 = alloca i64, align 8
  %3 = alloca ptr, align 8
  store i64 %0, ptr %2, align 8, !tbaa !16
  call void @llvm.lifetime.start.p0(i64 8, ptr %3) #16
  %4 = load i64, ptr %2, align 8, !tbaa !16
  %5 = inttoptr i64 %4 to ptr
  %6 = getelementptr inbounds nuw %struct.RData, ptr %5, i32 0, i32 3
  %7 = load ptr, ptr %6, align 8, !tbaa !117
  store ptr %7, ptr %3, align 8, !tbaa !7
  %8 = load ptr, ptr %3, align 8, !tbaa !7
  call void @llvm.lifetime.end.p0(i64 8, ptr %3) #16
  ret ptr %8
}

; Function Attrs: nounwind sspstrong uwtable
define internal i64 @ractor_create_func(i64 noundef %0, i64 noundef %1, i64 noundef %2, i64 noundef %3, ptr noundef %4) #0 {
  %6 = alloca i64, align 8
  %7 = alloca i64, align 8
  %8 = alloca i64, align 8
  %9 = alloca i64, align 8
  %10 = alloca ptr, align 8
  %11 = alloca i64, align 8
  store i64 %0, ptr %6, align 8, !tbaa !16
  store i64 %1, ptr %7, align 8, !tbaa !16
  store i64 %2, ptr %8, align 8, !tbaa !16
  store i64 %3, ptr %9, align 8, !tbaa !16
  store ptr %4, ptr %10, align 8, !tbaa !124
  call void @llvm.lifetime.start.p0(i64 8, ptr %11) #16
  %12 = load ptr, ptr %10, align 8, !tbaa !124
  %13 = call i64 @rb_proc_new(ptr noundef %12, i64 noundef 4)
  store i64 %13, ptr %11, align 8, !tbaa !16
  %14 = call ptr @rb_current_ec_noinline()
  %15 = load i64, ptr %6, align 8, !tbaa !16
  %16 = load i64, ptr %7, align 8, !tbaa !16
  %17 = load i64, ptr %8, align 8, !tbaa !16
  %18 = load i64, ptr %9, align 8, !tbaa !16
  %19 = load i64, ptr %11, align 8, !tbaa !16
  %20 = call i64 @ractor_create(ptr noundef %14, i64 noundef %15, i64 noundef %16, i64 noundef %17, i64 noundef %18, i64 noundef %19)
  call void @llvm.lifetime.end.p0(i64 8, ptr %11) #16
  ret i64 %20
}

; Function Attrs: inlinehint nounwind sspstrong uwtable
define internal i64 @rbimpl_str_new_cstr(ptr noundef nonnull %0) #4 {
  %2 = alloca ptr, align 8
  %3 = alloca i64, align 8
  store ptr %0, ptr %2, align 8, !tbaa !12
  call void @llvm.lifetime.start.p0(i64 8, ptr %3) #16
  %4 = load ptr, ptr %2, align 8, !tbaa !12
  %5 = call i64 @rbimpl_strlen(ptr noundef %4)
  store i64 %5, ptr %3, align 8, !tbaa !16
  %6 = load ptr, ptr %2, align 8, !tbaa !12
  %7 = load i64, ptr %3, align 8, !tbaa !16
  %8 = call i64 @rb_str_new_static(ptr noundef %6, i64 noundef %7)
  call void @llvm.lifetime.end.p0(i64 8, ptr %3) #16
  ret i64 %8
}

; Function Attrs: nounwind sspstrong uwtable
define internal i64 @rb_ractor_channel_close(ptr noundef %0, i64 noundef %1) #0 {
  %3 = alloca ptr, align 8
  %4 = alloca i64, align 8
  %5 = alloca ptr, align 8
  store ptr %0, ptr %3, align 8, !tbaa !88
  store i64 %1, ptr %4, align 8, !tbaa !16
  call void @llvm.lifetime.start.p0(i64 8, ptr %5) #16
  %6 = load i64, ptr %4, align 8, !tbaa !16
  %7 = call ptr @RACTOR_PTR(i64 noundef %6)
  store ptr %7, ptr %5, align 8, !tbaa !7
  %8 = load ptr, ptr %3, align 8, !tbaa !88
  %9 = load ptr, ptr %5, align 8, !tbaa !7
  %10 = call i64 @ractor_close_incoming(ptr noundef %8, ptr noundef %9)
  %11 = load ptr, ptr %3, align 8, !tbaa !88
  %12 = load ptr, ptr %5, align 8, !tbaa !7
  %13 = call i64 @ractor_close_outgoing(ptr noundef %11, ptr noundef %12)
  call void @llvm.lifetime.end.p0(i64 8, ptr %5) #16
  ret i64 %13
}

; Function Attrs: nounwind sspstrong uwtable
define internal i64 @rb_ractor_channel_take(ptr noundef %0, i64 noundef %1) #0 {
  %3 = alloca ptr, align 8
  %4 = alloca i64, align 8
  %5 = alloca ptr, align 8
  store ptr %0, ptr %3, align 8, !tbaa !88
  store i64 %1, ptr %4, align 8, !tbaa !16
  call void @llvm.lifetime.start.p0(i64 8, ptr %5) #16
  %6 = load i64, ptr %4, align 8, !tbaa !16
  %7 = call ptr @RACTOR_PTR(i64 noundef %6)
  store ptr %7, ptr %5, align 8, !tbaa !7
  %8 = load ptr, ptr %3, align 8, !tbaa !88
  %9 = load ptr, ptr %5, align 8, !tbaa !7
  %10 = call i64 @ractor_take(ptr noundef %8, ptr noundef %9)
  call void @llvm.lifetime.end.p0(i64 8, ptr %5) #16
  ret i64 %10
}

; Function Attrs: inlinehint nounwind sspstrong uwtable
define internal ptr @rb_current_vm() #4 {
  %1 = load ptr, ptr @ruby_current_vm_ptr, align 8, !tbaa !44
  ret ptr %1
}

; Function Attrs: inlinehint nounwind sspstrong uwtable
define internal ptr @rb_current_execution_context(i1 noundef zeroext %0) #4 {
  %2 = alloca i8, align 1
  %3 = alloca ptr, align 8
  %4 = zext i1 %0 to i8
  store i8 %4, ptr %2, align 1, !tbaa !89
  call void @llvm.lifetime.start.p0(i64 8, ptr %3) #16
  %5 = call align 8 ptr @llvm.threadlocal.address.p0(ptr align 8 @ruby_current_ec)
  %6 = load ptr, ptr %5, align 8, !tbaa !88
  store ptr %6, ptr %3, align 8, !tbaa !88
  %7 = load ptr, ptr %3, align 8, !tbaa !88
  call void @llvm.lifetime.end.p0(i64 8, ptr %3) #16
  ret ptr %7
}

; Function Attrs: nounwind sspstrong uwtable
define internal i64 @rb_ractor_channel_new() #0 {
  %1 = load i64, ptr @rb_cRactor, align 8, !tbaa !16
  %2 = call i64 @rbimpl_str_new_cstr(ptr noundef @.str.100)
  %3 = call i64 @rb_ary_new()
  %4 = call i64 @ractor_create_func(i64 noundef %1, i64 noundef 4, i64 noundef %2, i64 noundef %3, ptr noundef @ractor_channel_func)
  ret i64 %4
}

; Function Attrs: nounwind sspstrong uwtable
define hidden i64 @rb_ractor_autoload_load(i64 noundef %0, i64 noundef %1) #0 {
  %3 = alloca i64, align 8
  %4 = alloca i64, align 8
  %5 = alloca %struct.cross_ractor_require, align 8
  %6 = alloca ptr, align 8
  %7 = alloca ptr, align 8
  store i64 %0, ptr %3, align 8, !tbaa !16
  store i64 %1, ptr %4, align 8, !tbaa !16
  call void @llvm.lifetime.start.p0(i64 48, ptr %5) #16
  %8 = getelementptr inbounds nuw %struct.cross_ractor_require, ptr %5, i32 0, i32 0
  %9 = call i64 @rb_ractor_channel_new()
  store i64 %9, ptr %8, align 8, !tbaa !172
  %10 = getelementptr inbounds nuw %struct.cross_ractor_require, ptr %5, i32 0, i32 1
  store i64 36, ptr %10, align 8, !tbaa !174
  %11 = getelementptr inbounds nuw %struct.cross_ractor_require, ptr %5, i32 0, i32 2
  store i64 36, ptr %11, align 8, !tbaa !175
  %12 = getelementptr inbounds nuw %struct.cross_ractor_require, ptr %5, i32 0, i32 3
  store i64 0, ptr %12, align 8, !tbaa !176
  %13 = getelementptr inbounds nuw %struct.cross_ractor_require, ptr %5, i32 0, i32 4
  %14 = load i64, ptr %3, align 8, !tbaa !16
  store i64 %14, ptr %13, align 8, !tbaa !177
  %15 = getelementptr inbounds nuw %struct.cross_ractor_require, ptr %5, i32 0, i32 5
  %16 = load i64, ptr %4, align 8, !tbaa !16
  store i64 %16, ptr %15, align 8, !tbaa !178
  call void @llvm.lifetime.start.p0(i64 8, ptr %6) #16
  %17 = call ptr @rb_current_execution_context(i1 noundef zeroext true)
  store ptr %17, ptr %6, align 8, !tbaa !88
  call void @llvm.lifetime.start.p0(i64 8, ptr %7) #16
  %18 = call ptr @rb_current_vm()
  %19 = getelementptr inbounds nuw %struct.rb_vm_struct, ptr %18, i32 0, i32 1
  %20 = getelementptr inbounds nuw %struct.anon, ptr %19, i32 0, i32 3
  %21 = load ptr, ptr %20, align 8, !tbaa !116
  store ptr %21, ptr %7, align 8, !tbaa !7
  %22 = load ptr, ptr %7, align 8, !tbaa !7
  call void @rb_ractor_interrupt_exec(ptr noundef %22, ptr noundef @ractor_autoload_load_func, ptr noundef %5, i32 noundef 0)
  %23 = load ptr, ptr %6, align 8, !tbaa !88
  %24 = getelementptr inbounds nuw %struct.cross_ractor_require, ptr %5, i32 0, i32 0
  %25 = load i64, ptr %24, align 8, !tbaa !172
  %26 = call i64 @rb_ractor_channel_take(ptr noundef %23, i64 noundef %25)
  %27 = load ptr, ptr %6, align 8, !tbaa !88
  %28 = getelementptr inbounds nuw %struct.cross_ractor_require, ptr %5, i32 0, i32 0
  %29 = load i64, ptr %28, align 8, !tbaa !172
  %30 = call i64 @rb_ractor_channel_close(ptr noundef %27, i64 noundef %29)
  %31 = getelementptr inbounds nuw %struct.cross_ractor_require, ptr %5, i32 0, i32 2
  %32 = load i64, ptr %31, align 8, !tbaa !175
  %33 = icmp ne i64 %32, 36
  br i1 %33, label %34, label %37

34:                                               ; preds = %2
  %35 = getelementptr inbounds nuw %struct.cross_ractor_require, ptr %5, i32 0, i32 2
  %36 = load i64, ptr %35, align 8, !tbaa !175
  call void @rb_exc_raise(i64 noundef %36) #30
  unreachable

37:                                               ; preds = %2
  %38 = getelementptr inbounds nuw %struct.cross_ractor_require, ptr %5, i32 0, i32 1
  %39 = load i64, ptr %38, align 8, !tbaa !174
  call void @llvm.lifetime.end.p0(i64 8, ptr %7) #16
  call void @llvm.lifetime.end.p0(i64 8, ptr %6) #16
  call void @llvm.lifetime.end.p0(i64 48, ptr %5) #16
  ret i64 %39
}