; Function Attrs: nounwind sspstrong uwtable
define hidden i64 @rb_ractor_autoload_load(i64 noundef %0, i64 noundef %1) local_unnamed_addr #0 {
  %3 = alloca %struct.cross_ractor_require, align 8
  call void @llvm.lifetime.start.p0(i64 48, ptr nonnull %3) #19
  %4 = load i64, ptr @rb_cRactor, align 8, !tbaa !80
  %5 = tail call i64 @rb_str_new_static(ptr noundef nonnull @.str.100, i64 noundef 14) #19
  %6 = tail call i64 @rb_ary_new() #19
  %7 = tail call i64 @rb_proc_new(ptr noundef nonnull @ractor_channel_func, i64 noundef 4) #19
  %8 = tail call ptr @rb_current_ec_noinline() #19
  %9 = tail call i64 @ractor_create(ptr noundef %8, i64 noundef %4, i64 noundef 4, i64 noundef %5, i64 noundef %6, i64 noundef %7)
  store i64 %9, ptr %3, align 8, !tbaa !191
  %10 = getelementptr inbounds nuw i8, ptr %3, i64 8
  store i64 36, ptr %10, align 8, !tbaa !193
  %11 = getelementptr inbounds nuw i8, ptr %3, i64 16
  store i64 36, ptr %11, align 8, !tbaa !194
  %12 = getelementptr inbounds nuw i8, ptr %3, i64 24
  store i64 0, ptr %12, align 8, !tbaa !195
  %13 = getelementptr inbounds nuw i8, ptr %3, i64 32
  store i64 %0, ptr %13, align 8, !tbaa !196
  %14 = getelementptr inbounds nuw i8, ptr %3, i64 40
  store i64 %1, ptr %14, align 8, !tbaa !197
  %15 = tail call align 8 ptr @llvm.threadlocal.address.p0(ptr align 8 @ruby_current_ec)
  %16 = load ptr, ptr %15, align 8, !tbaa !123
  %17 = load ptr, ptr @ruby_current_vm_ptr, align 8, !tbaa !125
  %18 = getelementptr inbounds nuw i8, ptr %17, i64 32
  %19 = load ptr, ptr %18, align 8, !tbaa !124
  call void @rb_ractor_interrupt_exec(ptr noundef %19, ptr noundef nonnull @ractor_autoload_load_func, ptr noundef nonnull %3, i32 noundef 0) #19
  %20 = load i64, ptr %3, align 8, !tbaa !191
  %21 = inttoptr i64 %20 to ptr
  %22 = getelementptr inbounds nuw i8, ptr %21, i64 32
  %23 = load ptr, ptr %22, align 8, !tbaa !111
  %24 = call fastcc range(i64 37, 36) i64 @ractor_take(ptr noundef %16, ptr noundef %23)
  %25 = load i64, ptr %3, align 8, !tbaa !191
  %26 = inttoptr i64 %25 to ptr
  %27 = getelementptr inbounds nuw i8, ptr %26, i64 32
  %28 = load ptr, ptr %27, align 8, !tbaa !111
  %29 = getelementptr inbounds nuw i8, ptr %28, i64 40
  call void @rb_native_mutex_lock(ptr noundef nonnull %29) #19
  %30 = getelementptr inbounds nuw i8, ptr %28, i64 80
  %31 = load i8, ptr %30, align 8, !tbaa !104, !range !98, !noundef !99
  %32 = trunc nuw i8 %31 to i1
  br i1 %32, label %rb_ractor_channel_close.exit, label %33

33:                                               ; preds = %2
  store i8 1, ptr %30, align 8, !tbaa !104
  %34 = getelementptr inbounds nuw i8, ptr %28, i64 184
  %35 = load i32, ptr %34, align 8, !tbaa !105
  %36 = and i32 %35, 1
  %.not.i.i.i.i = icmp eq i32 %36, 0
  br i1 %.not.i.i.i.i, label %rb_ractor_channel_close.exit, label %ractor_sleeping_by.exit.i.i.i

ractor_sleeping_by.exit.i.i.i:                    ; preds = %33
  %37 = getelementptr inbounds nuw i8, ptr %28, i64 188
  %38 = load i32, ptr %37, align 4, !tbaa !106
  %39 = icmp eq i32 %38, 0
  br i1 %39, label %40, label %rb_ractor_channel_close.exit

40:                                               ; preds = %ractor_sleeping_by.exit.i.i.i
  store i32 4, ptr %37, align 4, !tbaa !106
  call void @rb_ractor_sched_wakeup(ptr noundef nonnull %28) #19
  br label %rb_ractor_channel_close.exit

rb_ractor_channel_close.exit:                     ; preds = %2, %33, %ractor_sleeping_by.exit.i.i.i, %40
  call void @rb_native_mutex_unlock(ptr noundef nonnull %29) #19
  %41 = call fastcc range(i64 0, 21) i64 @ractor_close_outgoing(ptr noundef nonnull %28)
  %42 = load i64, ptr %11, align 8, !tbaa !194
  %.not = icmp eq i64 %42, 36
  br i1 %.not, label %44, label %43

43:                                               ; preds = %rb_ractor_channel_close.exit
  call void @rb_exc_raise(i64 noundef %42) #27
  unreachable

44:                                               ; preds = %rb_ractor_channel_close.exit
  %45 = load i64, ptr %10, align 8, !tbaa !193
  call void @llvm.lifetime.end.p0(i64 48, ptr nonnull %3) #19
  ret i64 %45
}